; ModuleID = '24/714.c'
source_filename = "24/714.c"
target datalayout = "e-m:e-p270:32:32-p271:32:32-p272:64:64-i64:64-f80:128-n8:16:32:64-S128"
target triple = "x86_64-pc-linux-gnu"

@.str = private unnamed_addr constant [3 x i8] c"%s\00", align 1
@.str.1 = private unnamed_addr constant [4 x i8] c"%s\0A\00", align 1

; Function Attrs: noinline nounwind uwtable
define dso_local i32 @main() #0 {
  %1 = alloca i32, align 4
  %2 = alloca [50 x [100 x i8]], align 16
  %3 = alloca [100 x i8], align 16
  %4 = alloca [100 x i8], align 16
  %5 = alloca [50 x i32], align 16
  %6 = alloca i32, align 4
  %7 = alloca i32, align 4
  %8 = alloca i32, align 4
  %9 = alloca i32, align 4
  %10 = alloca i32, align 4
  store i32 0, i32* %1, align 4
  %11 = bitcast [50 x [100 x i8]]* %2 to i8*
  call void @llvm.memset.p0i8.i64(i8* align 16 %11, i8 0, i64 5000, i1 false)
  store i32 0, i32* %7, align 4
  store i32 100, i32* %8, align 4
  store i32 0, i32* %9, align 4
  br label %12

12:                                               ; preds = %38, %0
  %13 = load i32, i32* %9, align 4
  %14 = icmp slt i32 %13, 100
  br i1 %14, label %15, label %41

15:                                               ; preds = %12
  %16 = load i32, i32* %9, align 4
  %17 = sext i32 %16 to i64
  %18 = getelementptr inbounds [50 x [100 x i8]], [50 x [100 x i8]]* %2, i64 0, i64 %17
  %19 = getelementptr inbounds [100 x i8], [100 x i8]* %18, i64 0, i64 0
  %20 = call i32 (i8*, ...) @__isoc99_scanf(i8* getelementptr inbounds ([3 x i8], [3 x i8]* @.str, i64 0, i64 0), i8* %19)
  %21 = load i32, i32* %9, align 4
  %22 = sext i32 %21 to i64
  %23 = getelementptr inbounds [50 x [100 x i8]], [50 x [100 x i8]]* %2, i64 0, i64 %22
  %24 = getelementptr inbounds [100 x i8], [100 x i8]* %23, i64 0, i64 0
  %25 = call i64 @strlen(i8* %24) #5
  %26 = trunc i64 %25 to i32
  %27 = load i32, i32* %9, align 4
  %28 = sext i32 %27 to i64
  %29 = getelementptr inbounds [50 x i32], [50 x i32]* %5, i64 0, i64 %28
  store i32 %26, i32* %29, align 4
  %30 = load i32, i32* %9, align 4
  store i32 %30, i32* %6, align 4
  %31 = load i32, i32* %9, align 4
  %32 = sext i32 %31 to i64
  %33 = getelementptr inbounds [50 x i32], [50 x i32]* %5, i64 0, i64 %32
  %34 = load i32, i32* %33, align 4
  %35 = icmp eq i32 %34, 0
  br i1 %35, label %36, label %37

36:                                               ; preds = %15
  br label %41

37:                                               ; preds = %15
  br label %38

38:                                               ; preds = %37
  %39 = load i32, i32* %9, align 4
  %40 = add nsw i32 %39, 1
  store i32 %40, i32* %9, align 4
  br label %12

41:                                               ; preds = %36, %12
  store i32 0, i32* %10, align 4
  br label %42

42:                                               ; preds = %83, %41
  %43 = load i32, i32* %10, align 4
  %44 = load i32, i32* %6, align 4
  %45 = icmp slt i32 %43, %44
  br i1 %45, label %46, label %86

46:                                               ; preds = %42
  %47 = load i32, i32* %10, align 4
  %48 = sext i32 %47 to i64
  %49 = getelementptr inbounds [50 x i32], [50 x i32]* %5, i64 0, i64 %48
  %50 = load i32, i32* %49, align 4
  %51 = load i32, i32* %8, align 4
  %52 = icmp slt i32 %50, %51
  br i1 %52, label %53, label %64

53:                                               ; preds = %46
  %54 = load i32, i32* %10, align 4
  %55 = sext i32 %54 to i64
  %56 = getelementptr inbounds [50 x i32], [50 x i32]* %5, i64 0, i64 %55
  %57 = load i32, i32* %56, align 4
  store i32 %57, i32* %8, align 4
  %58 = getelementptr inbounds [100 x i8], [100 x i8]* %4, i64 0, i64 0
  %59 = load i32, i32* %10, align 4
  %60 = sext i32 %59 to i64
  %61 = getelementptr inbounds [50 x [100 x i8]], [50 x [100 x i8]]* %2, i64 0, i64 %60
  %62 = getelementptr inbounds [100 x i8], [100 x i8]* %61, i64 0, i64 0
  %63 = call i8* @strcpy(i8* %58, i8* %62) #6
  br label %64

64:                                               ; preds = %53, %46
  %65 = load i32, i32* %10, align 4
  %66 = sext i32 %65 to i64
  %67 = getelementptr inbounds [50 x i32], [50 x i32]* %5, i64 0, i64 %66
  %68 = load i32, i32* %67, align 4
  %69 = load i32, i32* %7, align 4
  %70 = icmp sgt i32 %68, %69
  br i1 %70, label %71, label %82

71:                                               ; preds = %64
  %72 = load i32, i32* %10, align 4
  %73 = sext i32 %72 to i64
  %74 = getelementptr inbounds [50 x i32], [50 x i32]* %5, i64 0, i64 %73
  %75 = load i32, i32* %74, align 4
  store i32 %75, i32* %7, align 4
  %76 = getelementptr inbounds [100 x i8], [100 x i8]* %3, i64 0, i64 0
  %77 = load i32, i32* %10, align 4
  %78 = sext i32 %77 to i64
  %79 = getelementptr inbounds [50 x [100 x i8]], [50 x [100 x i8]]* %2, i64 0, i64 %78
  %80 = getelementptr inbounds [100 x i8], [100 x i8]* %79, i64 0, i64 0
  %81 = call i8* @strcpy(i8* %76, i8* %80) #6
  br label %82

82:                                               ; preds = %71, %64
  br label %83

83:                                               ; preds = %82
  %84 = load i32, i32* %10, align 4
  %85 = add nsw i32 %84, 1
  store i32 %85, i32* %10, align 4
  br label %42

86:                                               ; preds = %42
  %87 = getelementptr inbounds [100 x i8], [100 x i8]* %3, i64 0, i64 0
  %88 = call i32 (i8*, ...) @printf(i8* getelementptr inbounds ([4 x i8], [4 x i8]* @.str.1, i64 0, i64 0), i8* %87)
  %89 = getelementptr inbounds [100 x i8], [100 x i8]* %4, i64 0, i64 0
  %90 = call i32 (i8*, ...) @printf(i8* getelementptr inbounds ([4 x i8], [4 x i8]* @.str.1, i64 0, i64 0), i8* %89)
  ret i32 0
}

; Function Attrs: argmemonly nounwind willreturn
declare void @llvm.memset.p0i8.i64(i8* nocapture writeonly, i8, i64, i1 immarg) #1

declare dso_local i32 @__isoc99_scanf(i8*, ...) #2

; Function Attrs: nounwind readonly
declare dso_local i64 @strlen(i8*) #3

; Function Attrs: nounwind
declare dso_local i8* @strcpy(i8*, i8*) #4

declare dso_local i32 @printf(i8*, ...) #2


!llvm.module.flags = !{!0}
!llvm.ident = !{!1}

!0 = !{i32 1, !"wchar_size", i32 4}
!1 = !{!"clang version 10.0.0-4ubuntu1 "}
