; ModuleID = 'source-C-CXX/23/714.c'
source_filename = "source-C-CXX/23/714.c"
target datalayout = "e-m:e-p270:32:32-p271:32:32-p272:64:64-i64:64-f80:128-n8:16:32:64-S128"
target triple = "x86_64-pc-linux-gnu"

@.str = private unnamed_addr constant [3 x i8] c"%s\00", align 1

; Function Attrs: nofree nounwind sspstrong uwtable
define dso_local i32 @main() local_unnamed_addr #0 {
  %1 = alloca [50 x [100 x i8]], align 16
  %2 = alloca [100 x i8], align 16
  %3 = alloca [100 x i8], align 16
  %4 = alloca [50 x i32], align 16
  %5 = getelementptr inbounds [50 x [100 x i8]], [50 x [100 x i8]]* %1, i64 0, i64 0, i64 0
  call void @llvm.lifetime.start.p0i8(i64 5000, i8* nonnull %5) #7
  call void @llvm.memset.p0i8.i64(i8* noundef nonnull align 16 dereferenceable(5000) %5, i8 0, i64 5000, i1 false)
  %6 = getelementptr inbounds [100 x i8], [100 x i8]* %2, i64 0, i64 0
  call void @llvm.lifetime.start.p0i8(i64 100, i8* nonnull %6) #7
  %7 = getelementptr inbounds [100 x i8], [100 x i8]* %3, i64 0, i64 0
  call void @llvm.lifetime.start.p0i8(i64 100, i8* nonnull %7) #7
  %8 = bitcast [50 x i32]* %4 to i8*
  call void @llvm.lifetime.start.p0i8(i64 200, i8* nonnull %8) #7
  br label %9

9:                                                ; preds = %9, %0
  %10 = phi i64 [ %17, %9 ], [ 0, %0 ]
  %11 = getelementptr inbounds [50 x [100 x i8]], [50 x [100 x i8]]* %1, i64 0, i64 %10, i64 0
  %12 = call i32 (i8*, ...) @__isoc99_scanf(i8* getelementptr inbounds ([3 x i8], [3 x i8]* @.str, i64 0, i64 0), i8* nonnull %11)
  %13 = call i64 @strlen(i8* noundef nonnull %11) #8
  %14 = trunc i64 %13 to i32
  %15 = getelementptr inbounds [50 x i32], [50 x i32]* %4, i64 0, i64 %10
  store i32 %14, i32* %15, align 4, !tbaa !5
  %16 = icmp ne i32 %14, 0
  %17 = add nuw nsw i64 %10, 1
  %18 = icmp ult i64 %10, 99
  %19 = select i1 %16, i1 %18, i1 false
  br i1 %19, label %9, label %20, !llvm.loop !9

20:                                               ; preds = %9
  %21 = trunc i64 %10 to i32
  %22 = icmp eq i32 %21, 0
  br i1 %22, label %23, label %26

23:                                               ; preds = %42, %20
  %24 = call i32 @puts(i8* nonnull %6)
  %25 = call i32 @puts(i8* nonnull %7)
  call void @llvm.lifetime.end.p0i8(i64 200, i8* nonnull %8) #7
  call void @llvm.lifetime.end.p0i8(i64 100, i8* nonnull %7) #7
  call void @llvm.lifetime.end.p0i8(i64 100, i8* nonnull %6) #7
  call void @llvm.lifetime.end.p0i8(i64 5000, i8* nonnull %5) #7
  ret i32 0

26:                                               ; preds = %20, %42
  %27 = phi i64 [ %44, %42 ], [ 0, %20 ]
  %28 = phi i32 [ %37, %42 ], [ 100, %20 ]
  %29 = phi i32 [ %43, %42 ], [ 0, %20 ]
  %30 = getelementptr inbounds [50 x i32], [50 x i32]* %4, i64 0, i64 %27
  %31 = load i32, i32* %30, align 4, !tbaa !5
  %32 = icmp slt i32 %31, %28
  br i1 %32, label %33, label %36

33:                                               ; preds = %26
  %34 = getelementptr inbounds [50 x [100 x i8]], [50 x [100 x i8]]* %1, i64 0, i64 %27, i64 0
  %35 = call i8* @strcpy(i8* noundef nonnull %7, i8* noundef nonnull %34) #7
  br label %36

36:                                               ; preds = %33, %26
  %37 = phi i32 [ %31, %33 ], [ %28, %26 ]
  %38 = icmp sgt i32 %31, %29
  br i1 %38, label %39, label %42

39:                                               ; preds = %36
  %40 = getelementptr inbounds [50 x [100 x i8]], [50 x [100 x i8]]* %1, i64 0, i64 %27, i64 0
  %41 = call i8* @strcpy(i8* noundef nonnull %6, i8* noundef nonnull %40) #7
  br label %42

42:                                               ; preds = %36, %39
  %43 = phi i32 [ %31, %39 ], [ %29, %36 ]
  %44 = add nuw nsw i64 %27, 1
  %45 = icmp eq i64 %44, %10
  br i1 %45, label %23, label %26, !llvm.loop !11
}

; Function Attrs: argmemonly mustprogress nofree nosync nounwind willreturn
declare void @llvm.lifetime.start.p0i8(i64 immarg, i8* nocapture) #1

; Function Attrs: argmemonly mustprogress nofree nounwind willreturn writeonly
declare void @llvm.memset.p0i8.i64(i8* nocapture writeonly, i8, i64, i1 immarg) #2

; Function Attrs: nofree nounwind
declare noundef i32 @__isoc99_scanf(i8* nocapture noundef readonly, ...) local_unnamed_addr #3

; Function Attrs: argmemonly mustprogress nofree nounwind readonly willreturn
declare i64 @strlen(i8* nocapture) local_unnamed_addr #4

; Function Attrs: argmemonly mustprogress nofree nosync nounwind willreturn
declare void @llvm.lifetime.end.p0i8(i64 immarg, i8* nocapture) #1

; Function Attrs: argmemonly mustprogress nofree nounwind willreturn
declare i8* @strcpy(i8* noalias returned writeonly, i8* noalias nocapture readonly) local_unnamed_addr #5

; Function Attrs: nofree nounwind
declare noundef i32 @puts(i8* nocapture noundef readonly) local_unnamed_addr #6


!llvm.module.flags = !{!0, !1, !2, !3}
!llvm.ident = !{!4}

!0 = !{i32 1, !"wchar_size", i32 4}
!1 = !{i32 7, !"PIC Level", i32 2}
!2 = !{i32 7, !"PIE Level", i32 2}
!3 = !{i32 7, !"uwtable", i32 1}
!4 = !{!"clang version 13.0.0"}
!5 = !{!6, !6, i64 0}
!6 = !{!"int", !7, i64 0}
!7 = !{!"omnipotent char", !8, i64 0}
!8 = !{!"Simple C/C++ TBAA"}
!9 = distinct !{!9, !10}
!10 = !{!"llvm.loop.mustprogress"}
!11 = distinct !{!11, !10}
